; Function Attrs: nounwind uwtable
define internal fastcc range(i32 0, 2) i32 @parse_pubkey(ptr noundef %0, ptr noundef nonnull %1, ptr noundef nonnull readonly captures(none) %2) unnamed_addr #0 {
  %4 = load ptr, ptr %2, align 8, !tbaa !14
  %5 = getelementptr inbounds nuw i8, ptr %4, i64 72
  %6 = load i32, ptr %5, align 8, !tbaa !29
  %7 = icmp sgt i32 %6, 0
  br i1 %7, label %.preheader.i.preheader, label %.loopexit

.preheader.i.preheader:                           ; preds = %3
  %8 = getelementptr inbounds nuw i8, ptr %2, i64 64
  %9 = load ptr, ptr %8, align 8, !tbaa !3
  br label %.preheader.i

.preheader.i:                                     ; preds = %.preheader.i.preheader, %scalar_decode_12.exit.i
  %.in.i = phi i32 [ %10, %scalar_decode_12.exit.i ], [ %6, %.preheader.i.preheader ]
  %.0612.i = phi ptr [ %36, %scalar_decode_12.exit.i ], [ %0, %.preheader.i.preheader ]
  %.0711.i = phi ptr [ %35, %scalar_decode_12.exit.i ], [ %9, %.preheader.i.preheader ]
  %10 = add nsw i32 %.in.i, -1
  br label %11

11:                                               ; preds = %31, %.preheader.i
  %.01623.i.i = phi ptr [ %33, %31 ], [ %.0612.i, %.preheader.i ]
  %.01722.i.i = phi i32 [ %34, %31 ], [ 0, %.preheader.i ]
  %.01821.i.i = phi ptr [ %32, %31 ], [ %.0711.i, %.preheader.i ]
  %12 = getelementptr inbounds nuw i8, ptr %.01623.i.i, i64 1
  %13 = load i8, ptr %.01623.i.i, align 1, !tbaa !41
  %14 = getelementptr inbounds nuw i8, ptr %.01623.i.i, i64 2
  %15 = load i8, ptr %12, align 1, !tbaa !41
  %16 = load i8, ptr %14, align 1, !tbaa !41
  %17 = zext i8 %13 to i32
  %18 = zext i8 %15 to i32
  %19 = shl nuw nsw i32 %18, 8
  %20 = and i32 %19, 3840
  %21 = or disjoint i32 %20, %17
  %22 = trunc nuw nsw i32 %21 to i16
  %23 = getelementptr inbounds nuw i8, ptr %.01821.i.i, i64 2
  store i16 %22, ptr %.01821.i.i, align 2, !tbaa !36
  %24 = icmp samesign ult i32 %21, 3329
  %25 = lshr i32 %18, 4
  %26 = zext i8 %16 to i32
  %27 = shl nuw nsw i32 %26, 4
  %28 = or disjoint i32 %27, %25
  %29 = trunc nuw nsw i32 %28 to i16
  store i16 %29, ptr %23, align 2, !tbaa !36
  %30 = icmp samesign ult i32 %28, 3329
  %.not20.i.i = and i1 %24, %30
  br i1 %.not20.i.i, label %31, label %vector_decode_12.exit

31:                                               ; preds = %11
  %32 = getelementptr inbounds nuw i8, ptr %.01821.i.i, i64 4
  %33 = getelementptr inbounds nuw i8, ptr %.01623.i.i, i64 3
  %34 = add nuw nsw i32 %.01722.i.i, 1
  %exitcond.not.i.i = icmp eq i32 %34, 128
  br i1 %exitcond.not.i.i, label %scalar_decode_12.exit.i, label %11, !llvm.loop !42

scalar_decode_12.exit.i:                          ; preds = %31
  %35 = getelementptr inbounds nuw i8, ptr %.0711.i, i64 512
  %36 = getelementptr inbounds nuw i8, ptr %.0612.i, i64 384
  %37 = icmp sgt i32 %.in.i, 1
  br i1 %37, label %.preheader.i, label %.loopexit, !llvm.loop !43

.loopexit:                                        ; preds = %scalar_decode_12.exit.i, %3
  %38 = getelementptr inbounds nuw i8, ptr %2, i64 48
  %39 = load ptr, ptr %38, align 8, !tbaa !31
  %40 = getelementptr inbounds nuw i8, ptr %4, i64 48
  %41 = load i64, ptr %40, align 8, !tbaa !15
  %42 = getelementptr inbounds nuw i8, ptr %0, i64 %41
  tail call void @llvm.memcpy.p0.p0.i64(ptr noundef nonnull align 1 dereferenceable(32) %39, ptr noundef nonnull align 1 dereferenceable(32) %42, i64 32, i1 false)
  %43 = getelementptr inbounds nuw i8, ptr %2, i64 56
  %44 = load ptr, ptr %43, align 8, !tbaa !32
  %45 = getelementptr inbounds nuw i8, ptr %4, i64 24
  %46 = load i64, ptr %45, align 8, !tbaa !35
  %47 = getelementptr i8, ptr %2, i64 32
  %.val = load ptr, ptr %47, align 8, !tbaa !23
  %48 = tail call fastcc i32 @hash_h(ptr noundef %44, ptr noundef %0, i64 noundef %46, ptr noundef %1, ptr %.val)
  %.not14 = icmp eq i32 %48, 0
  br i1 %.not14, label %vector_decode_12.exit, label %49

49:                                               ; preds = %.loopexit
  %50 = tail call fastcc i32 @matrix_expand(ptr noundef %1, ptr noundef %2)
  br label %vector_decode_12.exit

vector_decode_12.exit:                            ; preds = %11, %.loopexit, %49
  %.0 = phi i32 [ 0, %.loopexit ], [ %50, %49 ], [ 0, %11 ]
  ret i32 %.0
}